target datalayout = "e-m:e-p270:32:32-p271:32:32-p272:64:64-i64:64-i128:128-f80:128-n8:16:32:64-S128"
target triple = "x86_64-pc-linux-gnu"

%struct.dt_pthread_mutex_t = type { %union.pthread_mutex_t }
%union.pthread_mutex_t = type { %struct.__pthread_mutex_s }
%struct.__pthread_mutex_s = type { i32, i32, i32, i32, i32, i16, i16, %struct.__pthread_internal_list }
%struct.__pthread_internal_list = type { ptr, ptr }
%struct.dt_cache_t = type { %struct.dt_pthread_mutex_t, i64, i64, i64, ptr, ptr, ptr, ptr, ptr, ptr }
%struct._GList = type { ptr, ptr, ptr }
%struct.dt_cache_entry_t = type { ptr, i64, i64, ptr, %union.pthread_rwlock_t, i32, i32 }
%union.pthread_rwlock_t = type { %struct.__pthread_rwlock_arch_t }
%struct.__pthread_rwlock_arch_t = type { i32, i32, i32, i32, i32, i32, i32, i32, i8, [7 x i8], i64, i32 }

; Function Attrs: inlinehint nounwind uwtable
define internal i32 @dt_pthread_mutex_destroy(ptr noundef %0) #1 {
  %2 = alloca ptr, align 8
  %3 = alloca i32, align 4
  store ptr %0, ptr %2, align 8, !tbaa !26
  call void @llvm.lifetime.start.p0(i64 4, ptr %3) #6
  %4 = load ptr, ptr %2, align 8, !tbaa !26
  %5 = getelementptr inbounds nuw %struct.dt_pthread_mutex_t, ptr %4, i32 0, i32 0
  %6 = call i32 @pthread_mutex_destroy(ptr noundef %5) #6
  store i32 %6, ptr %3, align 4, !tbaa !38
  %7 = load i32, ptr %3, align 4, !tbaa !38
  call void @llvm.lifetime.end.p0(i64 4, ptr %3) #6
  ret i32 %7
}

; Function Attrs: inlinehint nounwind uwtable
define internal i32 @dt_pthread_rwlock_destroy(ptr noundef %0) #1 {
  %2 = alloca ptr, align 8
  %3 = alloca i32, align 4
  store ptr %0, ptr %2, align 8, !tbaa !28
  call void @llvm.lifetime.start.p0(i64 4, ptr %3) #6
  %4 = load ptr, ptr %2, align 8, !tbaa !28
  %5 = call i32 @pthread_rwlock_destroy(ptr noundef %4) #6
  store i32 %5, ptr %3, align 4, !tbaa !38
  %6 = load i32, ptr %3, align 4, !tbaa !38
  call void @llvm.lifetime.end.p0(i64 4, ptr %3) #6
  ret i32 %6
}

; Function Attrs: nounwind uwtable
define void @dt_cache_cleanup(ptr noundef %0) #0 {
  %2 = alloca ptr, align 8
  %3 = alloca ptr, align 8
  %4 = alloca ptr, align 8
  store ptr %0, ptr %2, align 8, !tbaa !6
  %5 = load ptr, ptr %2, align 8, !tbaa !6
  %6 = getelementptr inbounds nuw %struct.dt_cache_t, ptr %5, i32 0, i32 4
  %7 = load ptr, ptr %6, align 8, !tbaa !25
  call void @g_hash_table_destroy(ptr noundef %7)
  call void @llvm.lifetime.start.p0(i64 8, ptr %3) #6
  %8 = load ptr, ptr %2, align 8, !tbaa !6
  %9 = getelementptr inbounds nuw %struct.dt_cache_t, ptr %8, i32 0, i32 5
  %10 = load ptr, ptr %9, align 8, !tbaa !18
  store ptr %10, ptr %3, align 8, !tbaa !29
  br label %11

11:                                               ; preds = %48, %1
  %12 = load ptr, ptr %3, align 8, !tbaa !29
  %13 = icmp ne ptr %12, null
  br i1 %13, label %15, label %14

14:                                               ; preds = %11
  call void @llvm.lifetime.end.p0(i64 8, ptr %3) #6
  br label %50

15:                                               ; preds = %11
  call void @llvm.lifetime.start.p0(i64 8, ptr %4) #6
  %16 = load ptr, ptr %3, align 8, !tbaa !29
  %17 = getelementptr inbounds nuw %struct._GList, ptr %16, i32 0, i32 0
  %18 = load ptr, ptr %17, align 8, !tbaa !30
  store ptr %18, ptr %4, align 8, !tbaa !32
  %19 = load ptr, ptr %2, align 8, !tbaa !6
  %20 = getelementptr inbounds nuw %struct.dt_cache_t, ptr %19, i32 0, i32 7
  %21 = load ptr, ptr %20, align 8, !tbaa !23
  %22 = icmp ne ptr %21, null
  br i1 %22, label %23, label %31

23:                                               ; preds = %15
  %24 = load ptr, ptr %2, align 8, !tbaa !6
  %25 = getelementptr inbounds nuw %struct.dt_cache_t, ptr %24, i32 0, i32 7
  %26 = load ptr, ptr %25, align 8, !tbaa !23
  %27 = load ptr, ptr %2, align 8, !tbaa !6
  %28 = getelementptr inbounds nuw %struct.dt_cache_t, ptr %27, i32 0, i32 9
  %29 = load ptr, ptr %28, align 8, !tbaa !24
  %30 = load ptr, ptr %4, align 8, !tbaa !32
  call void %26(ptr noundef %29, ptr noundef %30)
  br label %35

31:                                               ; preds = %15
  %32 = load ptr, ptr %4, align 8, !tbaa !32
  %33 = getelementptr inbounds nuw %struct.dt_cache_entry_t, ptr %32, i32 0, i32 0
  %34 = load ptr, ptr %33, align 8, !tbaa !34
  call void @free(ptr noundef %34) #6
  br label %35

35:                                               ; preds = %31, %23
  %36 = load ptr, ptr %4, align 8, !tbaa !32
  %37 = getelementptr inbounds nuw %struct.dt_cache_entry_t, ptr %36, i32 0, i32 4
  %38 = call i32 @dt_pthread_rwlock_destroy(ptr noundef %37)
  %39 = load ptr, ptr %4, align 8, !tbaa !32
  call void @g_slice_free1(i64 noundef 96, ptr noundef %39)
  call void @llvm.lifetime.end.p0(i64 8, ptr %4) #6
  br label %40

40:                                               ; preds = %35
  %41 = load ptr, ptr %3, align 8, !tbaa !29
  %42 = icmp ne ptr %41, null
  br i1 %42, label %43, label %47

43:                                               ; preds = %40
  %44 = load ptr, ptr %3, align 8, !tbaa !29
  %45 = getelementptr inbounds nuw %struct._GList, ptr %44, i32 0, i32 1
  %46 = load ptr, ptr %45, align 8, !tbaa !37
  br label %48

47:                                               ; preds = %40
  br label %48

48:                                               ; preds = %47, %43
  %49 = phi ptr [ %46, %43 ], [ null, %47 ]
  store ptr %49, ptr %3, align 8, !tbaa !29
  br label %11

50:                                               ; preds = %14
  %51 = load ptr, ptr %2, align 8, !tbaa !6
  %52 = getelementptr inbounds nuw %struct.dt_cache_t, ptr %51, i32 0, i32 5
  %53 = load ptr, ptr %52, align 8, !tbaa !18
  call void @g_list_free(ptr noundef %53)
  %54 = load ptr, ptr %2, align 8, !tbaa !6
  %55 = getelementptr inbounds nuw %struct.dt_cache_t, ptr %54, i32 0, i32 0
  %56 = call i32 @dt_pthread_mutex_destroy(ptr noundef %55)
  ret void
}