; Function Attrs: nounwind uwtable
define void @dt_cache_cleanup(ptr noundef %0) local_unnamed_addr #0 {
  %2 = getelementptr inbounds nuw i8, ptr %0, i64 64
  %3 = load ptr, ptr %2, align 8, !tbaa !18
  tail call void @g_hash_table_destroy(ptr noundef %3) #8
  %4 = getelementptr inbounds nuw i8, ptr %0, i64 72
  %.017 = load ptr, ptr %4, align 8, !tbaa !19
  %.not18 = icmp eq ptr %.017, null
  br i1 %.not18, label %._crit_edge, label %.lr.ph

.lr.ph:                                           ; preds = %1
  %5 = getelementptr inbounds nuw i8, ptr %0, i64 88
  %6 = getelementptr inbounds nuw i8, ptr %0, i64 104
  br label %9

._crit_edge.loopexit:                             ; preds = %16
  %.pre = load ptr, ptr %4, align 8, !tbaa !15
  br label %._crit_edge

._crit_edge:                                      ; preds = %._crit_edge.loopexit, %1
  %7 = phi ptr [ %.pre, %._crit_edge.loopexit ], [ null, %1 ]
  tail call void @g_list_free(ptr noundef %7) #8
  %8 = tail call i32 @pthread_mutex_destroy(ptr noundef nonnull %0) #8
  ret void

9:                                                ; preds = %.lr.ph, %16
  %.019 = phi ptr [ %.017, %.lr.ph ], [ %.0, %16 ]
  %10 = load ptr, ptr %.019, align 8, !tbaa !20
  %11 = load ptr, ptr %5, align 8, !tbaa !22
  %.not16 = icmp eq ptr %11, null
  br i1 %.not16, label %14, label %12

12:                                               ; preds = %9
  %13 = load ptr, ptr %6, align 8, !tbaa !23
  tail call void %11(ptr noundef %13, ptr noundef %10) #8
  br label %16

14:                                               ; preds = %9
  %15 = load ptr, ptr %10, align 8, !tbaa !24
  tail call void @free(ptr noundef %15) #8
  br label %16

16:                                               ; preds = %14, %12
  %17 = getelementptr inbounds nuw i8, ptr %10, i64 32
  %18 = tail call i32 @pthread_rwlock_destroy(ptr noundef nonnull %17) #8
  tail call void @g_slice_free1(i64 noundef 96, ptr noundef %10) #8
  %19 = getelementptr inbounds nuw i8, ptr %.019, i64 8
  %.0 = load ptr, ptr %19, align 8, !tbaa !19
  %.not = icmp eq ptr %.0, null
  br i1 %.not, label %._crit_edge.loopexit, label %9
}